; Function Attrs: mustprogress uwtable
define noundef ptr @_ZN3re26Regexp13LiteralStringEPiiNS0_10ParseFlagsE(ptr nocapture noundef readonly %runes, i32 noundef %nrunes, i32 noundef %flags) local_unnamed_addr #7 align 2 personality ptr @__gxx_personality_v0 {
entry:
  %cmp = icmp slt i32 %nrunes, 1
  br i1 %cmp, label %if.then, label %if.end

if.then:                                          ; preds = %entry
  %call = tail call noalias noundef nonnull dereferenceable(40) ptr @_Znwm(i64 noundef 40) #29
  invoke void @_ZN3re26RegexpC1ENS_8RegexpOpENS0_10ParseFlagsE(ptr noundef nonnull align 8 dereferenceable(40) %call, i32 noundef 2, i32 noundef %flags)
          to label %return unwind label %lpad

lpad:                                             ; preds = %if.then
  %0 = landingpad { ptr, i32 }
          cleanup
  br label %common.resume

if.end:                                           ; preds = %entry
  %cmp1 = icmp eq i32 %nrunes, 1
  br i1 %cmp1, label %if.then2, label %if.end4

if.then2:                                         ; preds = %if.end
  %1 = load i32, ptr %runes, align 4
  %call.i = tail call noalias noundef nonnull dereferenceable(40) ptr @_Znwm(i64 noundef 40) #29
  invoke void @_ZN3re26RegexpC1ENS_8RegexpOpENS0_10ParseFlagsE(ptr noundef nonnull align 8 dereferenceable(40) %call.i, i32 noundef 3, i32 noundef %flags)
          to label %_ZN3re26Regexp10NewLiteralEiNS0_10ParseFlagsE.exit unwind label %lpad.i

common.resume:                                    ; preds = %lpad, %lpad6, %lpad.i
  %call.sink = phi ptr [ %call, %lpad ], [ %call5, %lpad6 ], [ %call.i, %lpad.i ]
  %common.resume.op = phi { ptr, i32 } [ %0, %lpad ], [ %15, %lpad6 ], [ %2, %lpad.i ]
  tail call void @_ZdlPv(ptr noundef nonnull %call.sink) #26
  resume { ptr, i32 } %common.resume.op

lpad.i:                                           ; preds = %if.then2
  %2 = landingpad { ptr, i32 }
          cleanup
  br label %common.resume

_ZN3re26Regexp10NewLiteralEiNS0_10ParseFlagsE.exit: ; preds = %if.then2
  %3 = getelementptr inbounds i8, ptr %call.i, i64 24
  store i32 %1, ptr %3, align 8
  br label %return

if.end4:                                          ; preds = %if.end
  %call5 = tail call noalias noundef nonnull dereferenceable(40) ptr @_Znwm(i64 noundef 40) #29
  invoke void @_ZN3re26RegexpC1ENS_8RegexpOpENS0_10ParseFlagsE(ptr noundef nonnull align 8 dereferenceable(40) %call5, i32 noundef 4, i32 noundef %flags)
          to label %for.body.lr.ph unwind label %lpad6

for.body.lr.ph:                                   ; preds = %if.end4
  %4 = getelementptr inbounds i8, ptr %call5, i64 24
  %runes_8.i = getelementptr inbounds i8, ptr %call5, i64 32
  %wide.trip.count = zext nneg i32 %nrunes to i64
  br label %for.body

for.body:                                         ; preds = %for.body.lr.ph, %_ZN3re26Regexp15AddRuneToStringEi.exit
  %indvars.iv = phi i64 [ 0, %for.body.lr.ph ], [ %indvars.iv.next, %_ZN3re26Regexp15AddRuneToStringEi.exit ]
  %arrayidx9 = getelementptr inbounds i32, ptr %runes, i64 %indvars.iv
  %5 = load i32, ptr %arrayidx9, align 4
  %6 = load i32, ptr %4, align 8
  %cmp.i = icmp eq i32 %6, 0
  br i1 %cmp.i, label %if.then.i, label %if.else.i

if.then.i:                                        ; preds = %for.body
  %call.i10 = tail call noalias noundef nonnull dereferenceable(32) ptr @_Znam(i64 noundef 32) #29
  store ptr %call.i10, ptr %runes_8.i, align 8
  br label %_ZN3re26Regexp15AddRuneToStringEi.exit

if.else.i:                                        ; preds = %for.body
  %cmp3.i = icmp sgt i32 %6, 7
  %7 = tail call i32 @llvm.ctpop.i32(i32 %6), !range !17
  %cmp6.i = icmp ult i32 %7, 2
  %or.cond.i = select i1 %cmp3.i, i1 %cmp6.i, i1 false
  %.pre14 = load ptr, ptr %runes_8.i, align 8
  br i1 %or.cond.i, label %for.body.preheader.i, label %_ZN3re26Regexp15AddRuneToStringEi.exit

for.body.preheader.i:                             ; preds = %if.else.i
  %mul.i = shl nuw nsw i32 %6, 1
  %conv.i = zext nneg i32 %mul.i to i64
  %8 = shl nuw nsw i64 %conv.i, 2
  %call10.i = tail call noalias noundef nonnull ptr @_Znam(i64 noundef %8) #29
  store ptr %call10.i, ptr %runes_8.i, align 8
  br label %for.body.i

for.body.i:                                       ; preds = %for.body.i, %for.body.preheader.i
  %indvars.iv.i = phi i64 [ 0, %for.body.preheader.i ], [ %indvars.iv.next.i, %for.body.i ]
  %arrayidx.i = getelementptr inbounds i32, ptr %.pre14, i64 %indvars.iv.i
  %9 = load i32, ptr %arrayidx.i, align 4
  %10 = load ptr, ptr %runes_8.i, align 8
  %arrayidx16.i = getelementptr inbounds i32, ptr %10, i64 %indvars.iv.i
  store i32 %9, ptr %arrayidx16.i, align 4
  %indvars.iv.next.i = add nuw nsw i64 %indvars.iv.i, 1
  %11 = load i32, ptr %4, align 8
  %12 = sext i32 %11 to i64
  %cmp13.i = icmp slt i64 %indvars.iv.next.i, %12
  br i1 %cmp13.i, label %for.body.i, label %delete.notnull.i, !llvm.loop !18

delete.notnull.i:                                 ; preds = %for.body.i
  tail call void @_ZdaPv(ptr noundef nonnull %.pre14) #26
  %.pre.i = load i32, ptr %4, align 8
  %.pre = load ptr, ptr %runes_8.i, align 8
  br label %_ZN3re26Regexp15AddRuneToStringEi.exit

_ZN3re26Regexp15AddRuneToStringEi.exit:           ; preds = %if.then.i, %if.else.i, %delete.notnull.i
  %13 = phi ptr [ %.pre14, %if.else.i ], [ %.pre, %delete.notnull.i ], [ %call.i10, %if.then.i ]
  %14 = phi i32 [ %6, %if.else.i ], [ %.pre.i, %delete.notnull.i ], [ 0, %if.then.i ]
  %inc20.i = add nsw i32 %14, 1
  store i32 %inc20.i, ptr %4, align 8
  %idxprom21.i = sext i32 %14 to i64
  %arrayidx22.i = getelementptr inbounds i32, ptr %13, i64 %idxprom21.i
  store i32 %5, ptr %arrayidx22.i, align 4
  %indvars.iv.next = add nuw nsw i64 %indvars.iv, 1
  %exitcond.not = icmp eq i64 %indvars.iv.next, %wide.trip.count
  br i1 %exitcond.not, label %return, label %for.body, !llvm.loop !21

lpad6:                                            ; preds = %if.end4
  %15 = landingpad { ptr, i32 }
          cleanup
  br label %common.resume

return:                                           ; preds = %_ZN3re26Regexp15AddRuneToStringEi.exit, %if.then, %_ZN3re26Regexp10NewLiteralEiNS0_10ParseFlagsE.exit
  %retval.0 = phi ptr [ %call.i, %_ZN3re26Regexp10NewLiteralEiNS0_10ParseFlagsE.exit ], [ %call, %if.then ], [ %call5, %_ZN3re26Regexp15AddRuneToStringEi.exit ]
  ret ptr %retval.0
}